target datalayout = "e-m:e-p270:32:32-p271:32:32-p272:64:64-i64:64-i128:128-f80:128-n8:16:32:64-S128"
target triple = "x86_64-pc-linux-gnu"

; Function Attrs: mustprogress nounwind uwtable
define internal noundef float @_ZL13vstr_to_floatPKc(ptr noundef %0) #2 {
  %2 = alloca ptr, align 8
  %3 = alloca double, align 8
  %4 = alloca ptr, align 8
  %5 = alloca i8, align 1
  %6 = alloca i64, align 8
  %7 = alloca i64, align 8
  %8 = alloca i64, align 8
  %9 = alloca i8, align 1
  %10 = alloca i64, align 8
  %11 = alloca double, align 8
  store ptr %0, ptr %2, align 8, !tbaa !205
  call void @llvm.lifetime.start.p0(i64 8, ptr %3) #16
  store double 0.000000e+00, ptr %3, align 8, !tbaa !386
  call void @llvm.lifetime.start.p0(i64 8, ptr %4) #16
  %12 = load ptr, ptr %2, align 8, !tbaa !205
  store ptr %12, ptr %4, align 8, !tbaa !205
  call void @llvm.lifetime.start.p0(i64 1, ptr %5) #16
  %13 = load ptr, ptr %4, align 8, !tbaa !205
  %14 = load i8, ptr %13, align 1, !tbaa !199
  %15 = sext i8 %14 to i32
  %16 = icmp ne i32 %15, 45
  %17 = zext i1 %16 to i8
  store i8 %17, ptr %5, align 1, !tbaa !228
  %18 = load ptr, ptr %4, align 8, !tbaa !205
  %19 = load i8, ptr %18, align 1, !tbaa !199
  %20 = sext i8 %19 to i32
  %21 = icmp eq i32 %20, 43
  br i1 %21, label %27, label %22

22:                                               ; preds = %1
  %23 = load ptr, ptr %4, align 8, !tbaa !205
  %24 = load i8, ptr %23, align 1, !tbaa !199
  %25 = sext i8 %24 to i32
  %26 = icmp eq i32 %25, 45
  br i1 %26, label %27, label %30

27:                                               ; preds = %22, %1
  %28 = load ptr, ptr %4, align 8, !tbaa !205
  %29 = getelementptr inbounds nuw i8, ptr %28, i32 1
  store ptr %29, ptr %4, align 8, !tbaa !205
  br label %30

30:                                               ; preds = %27, %22
  call void @llvm.lifetime.start.p0(i64 8, ptr %6) #16
  store i64 0, ptr %6, align 8, !tbaa !149
  br label %31

31:                                               ; preds = %37, %30
  %32 = load ptr, ptr %4, align 8, !tbaa !205
  %33 = load i8, ptr %32, align 1, !tbaa !199
  %34 = sext i8 %33 to i32
  %35 = call i32 @isdigit(i32 noundef %34) #26
  %36 = icmp ne i32 %35, 0
  br i1 %36, label %37, label %48

37:                                               ; preds = %31
  %38 = load i64, ptr %6, align 8, !tbaa !149
  %39 = mul i64 %38, 10
  %40 = load ptr, ptr %4, align 8, !tbaa !205
  %41 = load i8, ptr %40, align 1, !tbaa !199
  %42 = sext i8 %41 to i32
  %43 = sub nsw i32 %42, 48
  %44 = sext i32 %43 to i64
  %45 = add i64 %39, %44
  store i64 %45, ptr %6, align 8, !tbaa !149
  %46 = load ptr, ptr %4, align 8, !tbaa !205
  %47 = getelementptr inbounds nuw i8, ptr %46, i32 1
  store ptr %47, ptr %4, align 8, !tbaa !205
  br label %31, !llvm.loop !522

48:                                               ; preds = %31
  %49 = load i64, ptr %6, align 8, !tbaa !149
  %50 = uitofp i64 %49 to double
  store double %50, ptr %3, align 8, !tbaa !386
  %51 = load ptr, ptr %4, align 8, !tbaa !205
  %52 = load i8, ptr %51, align 1, !tbaa !199
  %53 = sext i8 %52 to i32
  %54 = icmp eq i32 %53, 46
  br i1 %54, label %55, label %85

55:                                               ; preds = %48
  %56 = load ptr, ptr %4, align 8, !tbaa !205
  %57 = getelementptr inbounds nuw i8, ptr %56, i32 1
  store ptr %57, ptr %4, align 8, !tbaa !205
  call void @llvm.lifetime.start.p0(i64 8, ptr %7) #16
  store i64 1, ptr %7, align 8, !tbaa !149
  call void @llvm.lifetime.start.p0(i64 8, ptr %8) #16
  store i64 0, ptr %8, align 8, !tbaa !149
  br label %58

58:                                               ; preds = %64, %55
  %59 = load ptr, ptr %4, align 8, !tbaa !205
  %60 = load i8, ptr %59, align 1, !tbaa !199
  %61 = sext i8 %60 to i32
  %62 = call i32 @isdigit(i32 noundef %61) #26
  %63 = icmp ne i32 %62, 0
  br i1 %63, label %64, label %77

64:                                               ; preds = %58
  %65 = load i64, ptr %8, align 8, !tbaa !149
  %66 = mul i64 %65, 10
  %67 = load ptr, ptr %4, align 8, !tbaa !205
  %68 = load i8, ptr %67, align 1, !tbaa !199
  %69 = sext i8 %68 to i32
  %70 = sub nsw i32 %69, 48
  %71 = sext i32 %70 to i64
  %72 = add i64 %66, %71
  store i64 %72, ptr %8, align 8, !tbaa !149
  %73 = load i64, ptr %7, align 8, !tbaa !149
  %74 = mul i64 %73, 10
  store i64 %74, ptr %7, align 8, !tbaa !149
  %75 = load ptr, ptr %4, align 8, !tbaa !205
  %76 = getelementptr inbounds nuw i8, ptr %75, i32 1
  store ptr %76, ptr %4, align 8, !tbaa !205
  br label %58, !llvm.loop !523

77:                                               ; preds = %58
  %78 = load i64, ptr %8, align 8, !tbaa !149
  %79 = uitofp i64 %78 to double
  %80 = load i64, ptr %7, align 8, !tbaa !149
  %81 = uitofp i64 %80 to double
  %82 = fdiv double %79, %81
  %83 = load double, ptr %3, align 8, !tbaa !386
  %84 = fadd double %83, %82
  store double %84, ptr %3, align 8, !tbaa !386
  call void @llvm.lifetime.end.p0(i64 8, ptr %8) #16
  call void @llvm.lifetime.end.p0(i64 8, ptr %7) #16
  br label %85

85:                                               ; preds = %77, %48
  %86 = load ptr, ptr %4, align 8, !tbaa !205
  %87 = load i8, ptr %86, align 1, !tbaa !199
  %88 = sext i8 %87 to i32
  %89 = icmp eq i32 %88, 101
  br i1 %89, label %95, label %90

90:                                               ; preds = %85
  %91 = load ptr, ptr %4, align 8, !tbaa !205
  %92 = load i8, ptr %91, align 1, !tbaa !199
  %93 = sext i8 %92 to i32
  %94 = icmp eq i32 %93, 69
  br i1 %94, label %95, label %164

95:                                               ; preds = %90, %85
  %96 = load ptr, ptr %4, align 8, !tbaa !205
  %97 = getelementptr inbounds nuw i8, ptr %96, i32 1
  store ptr %97, ptr %4, align 8, !tbaa !205
  call void @llvm.lifetime.start.p0(i64 1, ptr %9) #16
  %98 = load ptr, ptr %4, align 8, !tbaa !205
  %99 = load i8, ptr %98, align 1, !tbaa !199
  %100 = sext i8 %99 to i32
  %101 = icmp ne i32 %100, 45
  %102 = zext i1 %101 to i8
  store i8 %102, ptr %9, align 1, !tbaa !228
  %103 = load ptr, ptr %4, align 8, !tbaa !205
  %104 = load i8, ptr %103, align 1, !tbaa !199
  %105 = sext i8 %104 to i32
  %106 = icmp eq i32 %105, 43
  br i1 %106, label %112, label %107

107:                                              ; preds = %95
  %108 = load ptr, ptr %4, align 8, !tbaa !205
  %109 = load i8, ptr %108, align 1, !tbaa !199
  %110 = sext i8 %109 to i32
  %111 = icmp eq i32 %110, 45
  br i1 %111, label %112, label %115

112:                                              ; preds = %107, %95
  %113 = load ptr, ptr %4, align 8, !tbaa !205
  %114 = getelementptr inbounds nuw i8, ptr %113, i32 1
  store ptr %114, ptr %4, align 8, !tbaa !205
  br label %115

115:                                              ; preds = %112, %107
  call void @llvm.lifetime.start.p0(i64 8, ptr %10) #16
  store i64 0, ptr %10, align 8, !tbaa !149
  br label %116

116:                                              ; preds = %122, %115
  %117 = load ptr, ptr %4, align 8, !tbaa !205
  %118 = load i8, ptr %117, align 1, !tbaa !199
  %119 = sext i8 %118 to i32
  %120 = call i32 @isdigit(i32 noundef %119) #26
  %121 = icmp ne i32 %120, 0
  br i1 %121, label %122, label %133

122:                                              ; preds = %116
  %123 = load i64, ptr %10, align 8, !tbaa !149
  %124 = mul i64 %123, 10
  %125 = load ptr, ptr %4, align 8, !tbaa !205
  %126 = load i8, ptr %125, align 1, !tbaa !199
  %127 = sext i8 %126 to i32
  %128 = sub nsw i32 %127, 48
  %129 = sext i32 %128 to i64
  %130 = add i64 %124, %129
  store i64 %130, ptr %10, align 8, !tbaa !149
  %131 = load ptr, ptr %4, align 8, !tbaa !205
  %132 = getelementptr inbounds nuw i8, ptr %131, i32 1
  store ptr %132, ptr %4, align 8, !tbaa !205
  br label %116, !llvm.loop !524

133:                                              ; preds = %116
  call void @llvm.lifetime.start.p0(i64 8, ptr %11) #16
  store double 1.000000e+00, ptr %11, align 8, !tbaa !386
  br label %134

134:                                              ; preds = %137, %133
  %135 = load i64, ptr %10, align 8, !tbaa !149
  %136 = icmp uge i64 %135, 8
  br i1 %136, label %137, label %142

137:                                              ; preds = %134
  %138 = load double, ptr %11, align 8, !tbaa !386
  %139 = fmul double %138, 1.000000e+08
  store double %139, ptr %11, align 8, !tbaa !386
  %140 = load i64, ptr %10, align 8, !tbaa !149
  %141 = sub i64 %140, 8
  store i64 %141, ptr %10, align 8, !tbaa !149
  br label %134, !llvm.loop !525

142:                                              ; preds = %134
  br label %143

143:                                              ; preds = %146, %142
  %144 = load i64, ptr %10, align 8, !tbaa !149
  %145 = icmp ugt i64 %144, 0
  br i1 %145, label %146, label %151

146:                                              ; preds = %143
  %147 = load double, ptr %11, align 8, !tbaa !386
  %148 = fmul double %147, 1.000000e+01
  store double %148, ptr %11, align 8, !tbaa !386
  %149 = load i64, ptr %10, align 8, !tbaa !149
  %150 = sub i64 %149, 1
  store i64 %150, ptr %10, align 8, !tbaa !149
  br label %143, !llvm.loop !526

151:                                              ; preds = %143
  %152 = load i8, ptr %9, align 1, !tbaa !228, !range !279, !noundef !280
  %153 = trunc i8 %152 to i1
  br i1 %153, label %154, label %158

154:                                              ; preds = %151
  %155 = load double, ptr %3, align 8, !tbaa !386
  %156 = load double, ptr %11, align 8, !tbaa !386
  %157 = fmul double %155, %156
  br label %162

158:                                              ; preds = %151
  %159 = load double, ptr %3, align 8, !tbaa !386
  %160 = load double, ptr %11, align 8, !tbaa !386
  %161 = fdiv double %159, %160
  br label %162

162:                                              ; preds = %158, %154
  %163 = phi double [ %157, %154 ], [ %161, %158 ]
  store double %163, ptr %3, align 8, !tbaa !386
  call void @llvm.lifetime.end.p0(i64 8, ptr %11) #16
  call void @llvm.lifetime.end.p0(i64 8, ptr %10) #16
  call void @llvm.lifetime.end.p0(i64 1, ptr %9) #16
  br label %164

164:                                              ; preds = %162, %90
  %165 = load i8, ptr %5, align 1, !tbaa !228, !range !279, !noundef !280
  %166 = trunc i8 %165 to i1
  br i1 %166, label %167, label %170

167:                                              ; preds = %164
  %168 = load double, ptr %3, align 8, !tbaa !386
  %169 = fptrunc double %168 to float
  br label %174

170:                                              ; preds = %164
  %171 = load double, ptr %3, align 8, !tbaa !386
  %172 = fneg double %171
  %173 = fptrunc double %172 to float
  br label %174

174:                                              ; preds = %170, %167
  %175 = phi float [ %169, %167 ], [ %173, %170 ]
  call void @llvm.lifetime.end.p0(i64 8, ptr %6) #16
  call void @llvm.lifetime.end.p0(i64 1, ptr %5) #16
  call void @llvm.lifetime.end.p0(i64 8, ptr %4) #16
  call void @llvm.lifetime.end.p0(i64 8, ptr %3) #16
  ret float %175
}