; Function Attrs: mustprogress nofree norecurse nosync nounwind willreturn memory(read, inaccessiblemem: none) uwtable
define internal fastcc noundef float @_ZL13vstr_to_floatPKc(ptr noundef nonnull readonly captures(none) %0) unnamed_addr #25 {
  %2 = load i8, ptr %0, align 1, !tbaa !322
  switch i8 %2, label %5 [
    i8 43, label %3
    i8 45, label %3
  ]

3:                                                ; preds = %1, %1
  %4 = getelementptr inbounds nuw i8, ptr %0, i64 1
  %.pre = load i8, ptr %4, align 1, !tbaa !322
  br label %5

5:                                                ; preds = %1, %3
  %6 = phi i8 [ %.pre, %3 ], [ %2, %1 ]
  %.051 = phi ptr [ %4, %3 ], [ %0, %1 ]
  %7 = sext i8 %6 to i32
  %isdigittmp65 = add nsw i32 %7, -48
  %isdigit66 = icmp ult i32 %isdigittmp65, 10
  br i1 %isdigit66, label %.lr.ph, label %._crit_edge

.lr.ph:                                           ; preds = %5, %.lr.ph
  %isdigittmp69 = phi i32 [ %isdigittmp, %.lr.ph ], [ %isdigittmp65, %5 ]
  %.05068 = phi i64 [ %10, %.lr.ph ], [ 0, %5 ]
  %.15267 = phi ptr [ %11, %.lr.ph ], [ %.051, %5 ]
  %8 = mul i64 %.05068, 10
  %9 = zext nneg i32 %isdigittmp69 to i64
  %10 = add i64 %8, %9
  %11 = getelementptr inbounds nuw i8, ptr %.15267, i64 1
  %12 = load i8, ptr %11, align 1, !tbaa !322
  %13 = sext i8 %12 to i32
  %isdigittmp = add nsw i32 %13, -48
  %isdigit = icmp ult i32 %isdigittmp, 10
  br i1 %isdigit, label %.lr.ph, label %._crit_edge.loopexit, !llvm.loop !352

._crit_edge.loopexit:                             ; preds = %.lr.ph
  %14 = uitofp i64 %10 to double
  br label %._crit_edge

._crit_edge:                                      ; preds = %._crit_edge.loopexit, %5
  %.152.lcssa = phi ptr [ %.051, %5 ], [ %11, %._crit_edge.loopexit ]
  %.050.lcssa = phi double [ 0.000000e+00, %5 ], [ %14, %._crit_edge.loopexit ]
  %.lcssa = phi i8 [ %6, %5 ], [ %12, %._crit_edge.loopexit ]
  %15 = icmp eq i8 %.lcssa, 46
  br i1 %15, label %.preheader64, label %30

.preheader64:                                     ; preds = %._crit_edge
  %.372 = getelementptr inbounds nuw i8, ptr %.152.lcssa, i64 1
  %16 = load i8, ptr %.372, align 1, !tbaa !322
  %17 = sext i8 %16 to i32
  %isdigittmp5773 = add nsw i32 %17, -48
  %isdigit5874 = icmp ult i32 %isdigittmp5773, 10
  br i1 %isdigit5874, label %.lr.ph79, label %._crit_edge80

.lr.ph79:                                         ; preds = %.preheader64, %.lr.ph79
  %isdigittmp5778 = phi i32 [ %isdigittmp57, %.lr.ph79 ], [ %isdigittmp5773, %.preheader64 ]
  %.377 = phi ptr [ %.3, %.lr.ph79 ], [ %.372, %.preheader64 ]
  %.04876 = phi i64 [ %20, %.lr.ph79 ], [ 0, %.preheader64 ]
  %.04975 = phi i64 [ %21, %.lr.ph79 ], [ 1, %.preheader64 ]
  %18 = mul i64 %.04876, 10
  %19 = zext nneg i32 %isdigittmp5778 to i64
  %20 = add i64 %18, %19
  %21 = mul i64 %.04975, 10
  %.3 = getelementptr inbounds nuw i8, ptr %.377, i64 1
  %22 = load i8, ptr %.3, align 1, !tbaa !322
  %23 = sext i8 %22 to i32
  %isdigittmp57 = add nsw i32 %23, -48
  %isdigit58 = icmp ult i32 %isdigittmp57, 10
  br i1 %isdigit58, label %.lr.ph79, label %._crit_edge80.loopexit, !llvm.loop !353

._crit_edge80.loopexit:                           ; preds = %.lr.ph79
  %24 = uitofp i64 %20 to double
  %25 = uitofp i64 %21 to double
  %26 = fdiv double %24, %25
  br label %._crit_edge80

._crit_edge80:                                    ; preds = %._crit_edge80.loopexit, %.preheader64
  %27 = phi i8 [ %16, %.preheader64 ], [ %22, %._crit_edge80.loopexit ]
  %.3.lcssa = phi ptr [ %.372, %.preheader64 ], [ %.3, %._crit_edge80.loopexit ]
  %28 = phi double [ 0.000000e+00, %.preheader64 ], [ %26, %._crit_edge80.loopexit ]
  %29 = fadd double %28, %.050.lcssa
  br label %30

30:                                               ; preds = %._crit_edge80, %._crit_edge
  %31 = phi i8 [ %27, %._crit_edge80 ], [ %.lcssa, %._crit_edge ]
  %.253 = phi ptr [ %.3.lcssa, %._crit_edge80 ], [ %.152.lcssa, %._crit_edge ]
  %.046 = phi double [ %29, %._crit_edge80 ], [ %.050.lcssa, %._crit_edge ]
  switch i8 %31, label %55 [
    i8 101, label %32
    i8 69, label %32
  ]

32:                                               ; preds = %30, %30
  %33 = getelementptr inbounds nuw i8, ptr %.253, i64 1
  %34 = load i8, ptr %33, align 1, !tbaa !322
  %.not59 = icmp eq i8 %34, 45
  switch i8 %34, label %37 [
    i8 43, label %35
    i8 45, label %35
  ]

35:                                               ; preds = %32, %32
  %36 = getelementptr inbounds nuw i8, ptr %.253, i64 2
  %.pre113 = load i8, ptr %36, align 1, !tbaa !322
  br label %37

37:                                               ; preds = %32, %35
  %38 = phi i8 [ %.pre113, %35 ], [ %34, %32 ]
  %.4 = phi ptr [ %36, %35 ], [ %33, %32 ]
  %39 = sext i8 %38 to i32
  %isdigittmp6084 = add nsw i32 %39, -48
  %isdigit6185 = icmp ult i32 %isdigittmp6084, 10
  br i1 %isdigit6185, label %.lr.ph90, label %._crit_edge101

.preheader63:                                     ; preds = %.lr.ph90
  %40 = icmp ugt i64 %43, 7
  br i1 %40, label %.lr.ph94, label %.preheader

.lr.ph90:                                         ; preds = %37, %.lr.ph90
  %isdigittmp6088 = phi i32 [ %isdigittmp60, %.lr.ph90 ], [ %isdigittmp6084, %37 ]
  %.04487 = phi i64 [ %43, %.lr.ph90 ], [ 0, %37 ]
  %.586 = phi ptr [ %44, %.lr.ph90 ], [ %.4, %37 ]
  %41 = mul i64 %.04487, 10
  %42 = zext nneg i32 %isdigittmp6088 to i64
  %43 = add i64 %41, %42
  %44 = getelementptr inbounds nuw i8, ptr %.586, i64 1
  %45 = load i8, ptr %44, align 1, !tbaa !322
  %46 = sext i8 %45 to i32
  %isdigittmp60 = add nsw i32 %46, -48
  %isdigit61 = icmp ult i32 %isdigittmp60, 10
  br i1 %isdigit61, label %.lr.ph90, label %.preheader63, !llvm.loop !354

.preheader:                                       ; preds = %.lr.ph94, %.preheader63
  %.145.lcssa = phi i64 [ %43, %.preheader63 ], [ %48, %.lr.ph94 ]
  %.0.lcssa = phi double [ 1.000000e+00, %.preheader63 ], [ %47, %.lr.ph94 ]
  %.not6297 = icmp eq i64 %.145.lcssa, 0
  br i1 %.not6297, label %._crit_edge101, label %.lr.ph100

.lr.ph94:                                         ; preds = %.preheader63, %.lr.ph94
  %.093 = phi double [ %47, %.lr.ph94 ], [ 1.000000e+00, %.preheader63 ]
  %.14592 = phi i64 [ %48, %.lr.ph94 ], [ %43, %.preheader63 ]
  %47 = fmul double %.093, 1.000000e+08
  %48 = add i64 %.14592, -8
  %49 = icmp ugt i64 %48, 7
  br i1 %49, label %.lr.ph94, label %.preheader, !llvm.loop !355

.lr.ph100:                                        ; preds = %.preheader, %.lr.ph100
  %.199 = phi double [ %50, %.lr.ph100 ], [ %.0.lcssa, %.preheader ]
  %.298 = phi i64 [ %51, %.lr.ph100 ], [ %.145.lcssa, %.preheader ]
  %50 = fmul double %.199, 1.000000e+01
  %51 = add nsw i64 %.298, -1
  %.not62 = icmp eq i64 %51, 0
  br i1 %.not62, label %._crit_edge101, label %.lr.ph100, !llvm.loop !356

._crit_edge101:                                   ; preds = %.lr.ph100, %37, %.preheader
  %.1.lcssa = phi double [ %.0.lcssa, %.preheader ], [ 1.000000e+00, %37 ], [ %50, %.lr.ph100 ]
  %52 = fmul double %.046, %.1.lcssa
  %53 = fdiv double %.046, %.1.lcssa
  %54 = select i1 %.not59, double %53, double %52
  br label %55

55:                                               ; preds = %30, %._crit_edge101
  %.147 = phi double [ %54, %._crit_edge101 ], [ %.046, %30 ]
  %.not = icmp eq i8 %2, 45
  %56 = fptrunc double %.147 to float
  %57 = fneg float %56
  %58 = select i1 %.not, float %57, float %56
  ret float %58
}